; Function Attrs: mustprogress uwtable
define void @_ZN6icu_756Locale12canonicalizeER10UErrorCode(ptr noundef nonnull align 8 dereferenceable(217) %this, ptr noundef nonnull align 4 dereferenceable(4) %status) local_unnamed_addr #1 align 2 personality ptr @__gxx_personality_v0 {
entry:
  %uncanonicalized = alloca %"class.icu_75::CharString", align 8
  %agg.tmp = alloca %"class.icu_75::StringPiece", align 8
  %0 = load i32, ptr %status, align 4
  %cmp.i = icmp slt i32 %0, 1
  br i1 %cmp.i, label %if.end, label %cleanup.cont

if.end:                                           ; preds = %entry
  %fIsBogus.i = getelementptr inbounds i8, ptr %this, i64 216
  %1 = load i8, ptr %fIsBogus.i, align 8
  %tobool3.not = icmp eq i8 %1, 0
  br i1 %tobool3.not, label %if.end5, label %if.then4

if.then4:                                         ; preds = %if.end
  store i32 1, ptr %status, align 4
  br label %cleanup.cont

if.end5:                                          ; preds = %if.end
  %fullName = getelementptr inbounds i8, ptr %this, i64 40
  %2 = load ptr, ptr %fullName, align 8
  call void @_ZN6icu_7511StringPieceC1EPKc(ptr noundef nonnull align 8 dereferenceable(12) %agg.tmp, ptr noundef %2)
  %3 = load ptr, ptr %agg.tmp, align 8
  %4 = getelementptr inbounds i8, ptr %agg.tmp, i64 8
  %5 = load i32, ptr %4, align 8
  call void @_ZN6icu_7515MaybeStackArrayIcLi40EEC1Ev(ptr noundef nonnull align 8 dereferenceable(53) %uncanonicalized)
  %len.i = getelementptr inbounds i8, ptr %uncanonicalized, i64 56
  store i32 0, ptr %len.i, align 8
  %6 = load ptr, ptr %uncanonicalized, align 8
  store i8 0, ptr %6, align 1
  %call3.i1.i = invoke noundef nonnull align 8 dereferenceable(60) ptr @_ZN6icu_7510CharString6appendEPKciR10UErrorCode(ptr noundef nonnull align 8 dereferenceable(60) %uncanonicalized, ptr noundef %3, i32 noundef %5, ptr noundef nonnull align 4 dereferenceable(4) %status)
          to label %_ZN6icu_7510CharStringC2ENS_11StringPieceER10UErrorCode.exit unwind label %lpad.i

common.resume:                                    ; preds = %lpad, %lpad.i
  %common.resume.op = phi { ptr, i32 } [ %7, %lpad.i ], [ %9, %lpad ]
  call void @_ZN6icu_7515MaybeStackArrayIcLi40EED1Ev(ptr noundef nonnull align 8 dereferenceable(53) %uncanonicalized) #20
  resume { ptr, i32 } %common.resume.op

lpad.i:                                           ; preds = %if.end5
  %7 = landingpad { ptr, i32 }
          cleanup
  br label %common.resume

_ZN6icu_7510CharStringC2ENS_11StringPieceER10UErrorCode.exit: ; preds = %if.end5
  %8 = load i32, ptr %status, align 4
  %cmp.i5 = icmp slt i32 %8, 1
  br i1 %cmp.i5, label %if.end9, label %cleanup

lpad:                                             ; preds = %if.end9
  %9 = landingpad { ptr, i32 }
          cleanup
  br label %common.resume

if.end9:                                          ; preds = %_ZN6icu_7510CharStringC2ENS_11StringPieceER10UErrorCode.exit
  %10 = load ptr, ptr %uncanonicalized, align 8
  %call13 = invoke noundef nonnull align 8 dereferenceable(217) ptr @_ZN6icu_756Locale4initEPKca(ptr noundef nonnull align 8 dereferenceable(217) %this, ptr noundef %10, i8 noundef signext 1)
          to label %invoke.cont12 unwind label %lpad

invoke.cont12:                                    ; preds = %if.end9
  %11 = load i8, ptr %fIsBogus.i, align 8
  %tobool16.not = icmp eq i8 %11, 0
  br i1 %tobool16.not, label %cleanup, label %if.then17

if.then17:                                        ; preds = %invoke.cont12
  store i32 1, ptr %status, align 4
  br label %cleanup

cleanup:                                          ; preds = %invoke.cont12, %if.then17, %_ZN6icu_7510CharStringC2ENS_11StringPieceER10UErrorCode.exit
  call void @_ZN6icu_7515MaybeStackArrayIcLi40EED1Ev(ptr noundef nonnull align 8 dereferenceable(53) %uncanonicalized) #20
  br label %cleanup.cont

cleanup.cont:                                     ; preds = %entry, %cleanup, %if.then4
  ret void
}